target datalayout = "e-m:e-p270:32:32-p271:32:32-p272:64:64-i64:64-i128:128-f80:128-n8:16:32:64-S128"
target triple = "x86_64-pc-linux-gnu"

%struct.AVFilterContext = type { ptr, ptr, ptr, ptr, ptr, i32, ptr, ptr, i32, ptr, ptr, i32, i32, ptr, ptr, ptr, ptr, i32, ptr, i32, i32 }
%struct.FadeContext = type { ptr, i32, i32, i32, i32, i32, i32, i32, i32, i32, i32, i32, i8, i8, [4 x i8], i32, i32, i64, i64, i64, i64, i32, [4 x i8], i32, ptr, ptr, ptr }
%struct.AVChannelLayout = type { i32, i32, %union.anon.1, ptr }
%union.anon.1 = type { i64 }
%struct.AVRational = type { i32, i32 }
%struct.AVFrame = type { [8 x ptr], [8 x i32], ptr, i32, i32, i32, i32, i32, %struct.AVRational, i64, i64, %struct.AVRational, i32, ptr, i32, i32, [8 x ptr], ptr, i32, ptr, i32, i32, i32, i32, i32, i32, i32, i64, ptr, i32, ptr, ptr, i64, i64, i64, i64, ptr, %struct.AVChannelLayout, i64 }

; Function Attrs: nounwind uwtable
define internal i32 @filter_slice_chroma(ptr noundef %0, ptr noundef %1, i32 noundef %2, i32 noundef %3) #1 {
  %5 = alloca ptr, align 8
  %6 = alloca ptr, align 8
  %7 = alloca i32, align 4
  %8 = alloca i32, align 4
  %9 = alloca ptr, align 8
  %10 = alloca ptr, align 8
  %11 = alloca i32, align 4
  %12 = alloca i32, align 4
  %13 = alloca i32, align 4
  %14 = alloca i32, align 4
  %15 = alloca i32, align 4
  %16 = alloca i32, align 4
  %17 = alloca i32, align 4
  %18 = alloca ptr, align 8
  store ptr %0, ptr %5, align 8, !tbaa !4
  store ptr %1, ptr %6, align 8, !tbaa !37
  store i32 %2, ptr %7, align 4, !tbaa !88
  store i32 %3, ptr %8, align 4, !tbaa !88
  call void @llvm.lifetime.start.p0(i64 8, ptr %9) #11
  %19 = load ptr, ptr %5, align 8, !tbaa !4
  %20 = getelementptr inbounds nuw %struct.AVFilterContext, ptr %19, i32 0, i32 9
  %21 = load ptr, ptr %20, align 8, !tbaa !9
  store ptr %21, ptr %9, align 8, !tbaa !22
  call void @llvm.lifetime.start.p0(i64 8, ptr %10) #11
  %22 = load ptr, ptr %6, align 8, !tbaa !37
  store ptr %22, ptr %10, align 8, !tbaa !40
  call void @llvm.lifetime.start.p0(i64 4, ptr %11) #11
  call void @llvm.lifetime.start.p0(i64 4, ptr %12) #11
  call void @llvm.lifetime.start.p0(i64 4, ptr %13) #11
  call void @llvm.lifetime.start.p0(i64 4, ptr %14) #11
  %23 = load ptr, ptr %9, align 8, !tbaa !22
  %24 = getelementptr inbounds nuw %struct.FadeContext, ptr %23, i32 0, i32 6
  %25 = load i32, ptr %24, align 4, !tbaa !74
  %26 = call i1 @llvm.is.constant.i32(i32 %25)
  br i1 %26, label %37, label %27

27:                                               ; preds = %4
  %28 = load ptr, ptr %10, align 8, !tbaa !40
  %29 = getelementptr inbounds nuw %struct.AVFrame, ptr %28, i32 0, i32 3
  %30 = load i32, ptr %29, align 8, !tbaa !89
  %31 = sub nsw i32 0, %30
  %32 = load ptr, ptr %9, align 8, !tbaa !22
  %33 = getelementptr inbounds nuw %struct.FadeContext, ptr %32, i32 0, i32 6
  %34 = load i32, ptr %33, align 4, !tbaa !74
  %35 = ashr i32 %31, %34
  %36 = sub nsw i32 0, %35
  br label %51

37:                                               ; preds = %4
  %38 = load ptr, ptr %10, align 8, !tbaa !40
  %39 = getelementptr inbounds nuw %struct.AVFrame, ptr %38, i32 0, i32 3
  %40 = load i32, ptr %39, align 8, !tbaa !89
  %41 = load ptr, ptr %9, align 8, !tbaa !22
  %42 = getelementptr inbounds nuw %struct.FadeContext, ptr %41, i32 0, i32 6
  %43 = load i32, ptr %42, align 4, !tbaa !74
  %44 = shl i32 1, %43
  %45 = add nsw i32 %40, %44
  %46 = sub nsw i32 %45, 1
  %47 = load ptr, ptr %9, align 8, !tbaa !22
  %48 = getelementptr inbounds nuw %struct.FadeContext, ptr %47, i32 0, i32 6
  %49 = load i32, ptr %48, align 4, !tbaa !74
  %50 = ashr i32 %46, %49
  br label %51

51:                                               ; preds = %37, %27
  %52 = phi i32 [ %36, %27 ], [ %50, %37 ]
  store i32 %52, ptr %14, align 4, !tbaa !88
  call void @llvm.lifetime.start.p0(i64 4, ptr %15) #11
  %53 = load ptr, ptr %9, align 8, !tbaa !22
  %54 = getelementptr inbounds nuw %struct.FadeContext, ptr %53, i32 0, i32 7
  %55 = load i32, ptr %54, align 8, !tbaa !76
  %56 = call i1 @llvm.is.constant.i32(i32 %55)
  br i1 %56, label %67, label %57

57:                                               ; preds = %51
  %58 = load ptr, ptr %10, align 8, !tbaa !40
  %59 = getelementptr inbounds nuw %struct.AVFrame, ptr %58, i32 0, i32 4
  %60 = load i32, ptr %59, align 4, !tbaa !63
  %61 = sub nsw i32 0, %60
  %62 = load ptr, ptr %9, align 8, !tbaa !22
  %63 = getelementptr inbounds nuw %struct.FadeContext, ptr %62, i32 0, i32 7
  %64 = load i32, ptr %63, align 8, !tbaa !76
  %65 = ashr i32 %61, %64
  %66 = sub nsw i32 0, %65
  br label %81

67:                                               ; preds = %51
  %68 = load ptr, ptr %10, align 8, !tbaa !40
  %69 = getelementptr inbounds nuw %struct.AVFrame, ptr %68, i32 0, i32 4
  %70 = load i32, ptr %69, align 4, !tbaa !63
  %71 = load ptr, ptr %9, align 8, !tbaa !22
  %72 = getelementptr inbounds nuw %struct.FadeContext, ptr %71, i32 0, i32 7
  %73 = load i32, ptr %72, align 8, !tbaa !76
  %74 = shl i32 1, %73
  %75 = add nsw i32 %70, %74
  %76 = sub nsw i32 %75, 1
  %77 = load ptr, ptr %9, align 8, !tbaa !22
  %78 = getelementptr inbounds nuw %struct.FadeContext, ptr %77, i32 0, i32 7
  %79 = load i32, ptr %78, align 8, !tbaa !76
  %80 = ashr i32 %76, %79
  br label %81

81:                                               ; preds = %67, %57
  %82 = phi i32 [ %66, %57 ], [ %80, %67 ]
  store i32 %82, ptr %15, align 4, !tbaa !88
  call void @llvm.lifetime.start.p0(i64 4, ptr %16) #11
  %83 = load i32, ptr %15, align 4, !tbaa !88
  %84 = load i32, ptr %7, align 4, !tbaa !88
  %85 = mul nsw i32 %83, %84
  %86 = load i32, ptr %8, align 4, !tbaa !88
  %87 = sdiv i32 %85, %86
  store i32 %87, ptr %16, align 4, !tbaa !88
  call void @llvm.lifetime.start.p0(i64 4, ptr %17) #11
  %88 = load i32, ptr %15, align 4, !tbaa !88
  %89 = load i32, ptr %7, align 4, !tbaa !88
  %90 = add nsw i32 %89, 1
  %91 = mul nsw i32 %88, %90
  %92 = load i32, ptr %8, align 4, !tbaa !88
  %93 = sdiv i32 %91, %92
  %94 = load ptr, ptr %10, align 8, !tbaa !40
  %95 = getelementptr inbounds nuw %struct.AVFrame, ptr %94, i32 0, i32 4
  %96 = load i32, ptr %95, align 4, !tbaa !63
  %97 = icmp sgt i32 %93, %96
  br i1 %97, label %98, label %102

98:                                               ; preds = %81
  %99 = load ptr, ptr %10, align 8, !tbaa !40
  %100 = getelementptr inbounds nuw %struct.AVFrame, ptr %99, i32 0, i32 4
  %101 = load i32, ptr %100, align 4, !tbaa !63
  br label %109

102:                                              ; preds = %81
  %103 = load i32, ptr %15, align 4, !tbaa !88
  %104 = load i32, ptr %7, align 4, !tbaa !88
  %105 = add nsw i32 %104, 1
  %106 = mul nsw i32 %103, %105
  %107 = load i32, ptr %8, align 4, !tbaa !88
  %108 = sdiv i32 %106, %107
  br label %109

109:                                              ; preds = %102, %98
  %110 = phi i32 [ %101, %98 ], [ %108, %102 ]
  store i32 %110, ptr %17, align 4, !tbaa !88
  store i32 1, ptr %13, align 4, !tbaa !88
  br label %111

111:                                              ; preds = %164, %109
  %112 = load i32, ptr %13, align 4, !tbaa !88
  %113 = icmp slt i32 %112, 3
  br i1 %113, label %114, label %167

114:                                              ; preds = %111
  %115 = load i32, ptr %16, align 4, !tbaa !88
  store i32 %115, ptr %11, align 4, !tbaa !88
  br label %116

116:                                              ; preds = %160, %114
  %117 = load i32, ptr %11, align 4, !tbaa !88
  %118 = load i32, ptr %17, align 4, !tbaa !88
  %119 = icmp slt i32 %117, %118
  br i1 %119, label %120, label %163

120:                                              ; preds = %116
  call void @llvm.lifetime.start.p0(i64 8, ptr %18) #11
  %121 = load ptr, ptr %10, align 8, !tbaa !40
  %122 = getelementptr inbounds nuw %struct.AVFrame, ptr %121, i32 0, i32 0
  %123 = load i32, ptr %13, align 4, !tbaa !88
  %124 = sext i32 %123 to i64
  %125 = getelementptr inbounds [8 x ptr], ptr %122, i64 0, i64 %124
  %126 = load ptr, ptr %125, align 8, !tbaa !66
  %127 = load i32, ptr %11, align 4, !tbaa !88
  %128 = load ptr, ptr %10, align 8, !tbaa !40
  %129 = getelementptr inbounds nuw %struct.AVFrame, ptr %128, i32 0, i32 1
  %130 = load i32, ptr %13, align 4, !tbaa !88
  %131 = sext i32 %130 to i64
  %132 = getelementptr inbounds [8 x i32], ptr %129, i64 0, i64 %131
  %133 = load i32, ptr %132, align 4, !tbaa !88
  %134 = mul nsw i32 %127, %133
  %135 = sext i32 %134 to i64
  %136 = getelementptr inbounds i8, ptr %126, i64 %135
  store ptr %136, ptr %18, align 8, !tbaa !66
  store i32 0, ptr %12, align 4, !tbaa !88
  br label %137

137:                                              ; preds = %156, %120
  %138 = load i32, ptr %12, align 4, !tbaa !88
  %139 = load i32, ptr %14, align 4, !tbaa !88
  %140 = icmp slt i32 %138, %139
  br i1 %140, label %141, label %159

141:                                              ; preds = %137
  %142 = load ptr, ptr %18, align 8, !tbaa !66
  %143 = load i8, ptr %142, align 1, !tbaa !90
  %144 = zext i8 %143 to i32
  %145 = sub nsw i32 %144, 128
  %146 = load ptr, ptr %9, align 8, !tbaa !22
  %147 = getelementptr inbounds nuw %struct.FadeContext, ptr %146, i32 0, i32 2
  %148 = load i32, ptr %147, align 4, !tbaa !52
  %149 = mul nsw i32 %145, %148
  %150 = add nsw i32 %149, 8421367
  %151 = ashr i32 %150, 16
  %152 = trunc i32 %151 to i8
  %153 = load ptr, ptr %18, align 8, !tbaa !66
  store i8 %152, ptr %153, align 1, !tbaa !90
  %154 = load ptr, ptr %18, align 8, !tbaa !66
  %155 = getelementptr inbounds nuw i8, ptr %154, i32 1
  store ptr %155, ptr %18, align 8, !tbaa !66
  br label %156

156:                                              ; preds = %141
  %157 = load i32, ptr %12, align 4, !tbaa !88
  %158 = add nsw i32 %157, 1
  store i32 %158, ptr %12, align 4, !tbaa !88
  br label %137, !llvm.loop !106

159:                                              ; preds = %137
  call void @llvm.lifetime.end.p0(i64 8, ptr %18) #11
  br label %160

160:                                              ; preds = %159
  %161 = load i32, ptr %11, align 4, !tbaa !88
  %162 = add nsw i32 %161, 1
  store i32 %162, ptr %11, align 4, !tbaa !88
  br label %116, !llvm.loop !107

163:                                              ; preds = %116
  br label %164

164:                                              ; preds = %163
  %165 = load i32, ptr %13, align 4, !tbaa !88
  %166 = add nsw i32 %165, 1
  store i32 %166, ptr %13, align 4, !tbaa !88
  br label %111, !llvm.loop !108

167:                                              ; preds = %111
  call void @llvm.lifetime.end.p0(i64 4, ptr %17) #11
  call void @llvm.lifetime.end.p0(i64 4, ptr %16) #11
  call void @llvm.lifetime.end.p0(i64 4, ptr %15) #11
  call void @llvm.lifetime.end.p0(i64 4, ptr %14) #11
  call void @llvm.lifetime.end.p0(i64 4, ptr %13) #11
  call void @llvm.lifetime.end.p0(i64 4, ptr %12) #11
  call void @llvm.lifetime.end.p0(i64 4, ptr %11) #11
  call void @llvm.lifetime.end.p0(i64 8, ptr %10) #11
  call void @llvm.lifetime.end.p0(i64 8, ptr %9) #11
  ret i32 0
}