; Function Attrs: nofree norecurse nosync nounwind memory(readwrite, inaccessiblemem: none) uwtable
define internal noundef i32 @filter_slice_chroma(ptr noundef readonly captures(none) %0, ptr noundef readonly captures(none) %1, i32 noundef %2, i32 noundef %3) #6 {
  %5 = getelementptr inbounds nuw i8, ptr %0, i64 72
  %6 = load ptr, ptr %5, align 8, !tbaa !4
  %7 = getelementptr inbounds nuw i8, ptr %1, i64 104
  %8 = load i32, ptr %7, align 8, !tbaa !74
  %9 = getelementptr inbounds nuw i8, ptr %6, i64 28
  %10 = load i32, ptr %9, align 4, !tbaa !62
  %11 = sub nsw i32 0, %8
  %12 = ashr i32 %11, %10
  %13 = sub nsw i32 0, %12
  %14 = getelementptr inbounds nuw i8, ptr %1, i64 108
  %15 = load i32, ptr %14, align 4, !tbaa !53
  %16 = sub nsw i32 0, %15
  %17 = getelementptr inbounds nuw i8, ptr %6, i64 32
  %18 = load i32, ptr %17, align 8, !tbaa !64
  %19 = ashr i32 %16, %18
  %20 = mul i32 %19, %2
  %21 = sub i32 0, %20
  %22 = sdiv i32 %21, %3
  %.neg = xor i32 %2, -1
  %23 = mul i32 %19, %.neg
  %24 = sdiv i32 %23, %3
  %. = tail call i32 @llvm.smin.i32(i32 %24, i32 %15)
  %25 = icmp slt i32 %22, %.
  %26 = getelementptr inbounds nuw i8, ptr %1, i64 64
  %27 = getelementptr inbounds nuw i8, ptr %6, i64 12
  %28 = icmp slt i32 %12, 0
  %or.cond = select i1 %25, i1 %28, i1 false
  br i1 %or.cond, label %.preheader.us.us, label %.split57.us

.preheader.us.us:                                 ; preds = %4, %._crit_edge51.split.us.us.us
  %indvars.iv = phi i64 [ %indvars.iv.next, %._crit_edge51.split.us.us.us ], [ 1, %4 ]
  %29 = getelementptr inbounds nuw [8 x ptr], ptr %1, i64 0, i64 %indvars.iv
  %30 = getelementptr inbounds nuw [8 x i32], ptr %26, i64 0, i64 %indvars.iv
  br label %.lr.ph.us.us.us

.lr.ph.us.us.us:                                  ; preds = %._crit_edge.us.us.us, %.preheader.us.us
  %.04249.us.us.us = phi i32 [ %22, %.preheader.us.us ], [ %47, %._crit_edge.us.us.us ]
  %31 = load ptr, ptr %29, align 8, !tbaa !54
  %32 = load i32, ptr %30, align 4, !tbaa !75
  %33 = mul nsw i32 %32, %.04249.us.us.us
  %34 = sext i32 %33 to i64
  %35 = getelementptr inbounds i8, ptr %31, i64 %34
  br label %36

36:                                               ; preds = %36, %.lr.ph.us.us.us
  %.048.us.us.us = phi ptr [ %35, %.lr.ph.us.us.us ], [ %45, %36 ]
  %.04347.us.us.us = phi i32 [ 0, %.lr.ph.us.us.us ], [ %46, %36 ]
  %37 = load i8, ptr %.048.us.us.us, align 1, !tbaa !76
  %38 = zext i8 %37 to i32
  %39 = add nuw nsw i32 %38, 16777088
  %40 = load i32, ptr %27, align 4, !tbaa !40
  %41 = mul i32 %39, %40
  %42 = add i32 %41, 8421367
  %43 = lshr i32 %42, 16
  %44 = trunc i32 %43 to i8
  store i8 %44, ptr %.048.us.us.us, align 1, !tbaa !76
  %45 = getelementptr inbounds nuw i8, ptr %.048.us.us.us, i64 1
  %46 = add nuw nsw i32 %.04347.us.us.us, 1
  %exitcond.not = icmp eq i32 %46, %13
  br i1 %exitcond.not, label %._crit_edge.us.us.us, label %36, !llvm.loop !94

._crit_edge.us.us.us:                             ; preds = %36
  %47 = add nsw i32 %.04249.us.us.us, 1
  %exitcond61.not = icmp eq i32 %47, %.
  br i1 %exitcond61.not, label %._crit_edge51.split.us.us.us, label %.lr.ph.us.us.us, !llvm.loop !95

._crit_edge51.split.us.us.us:                     ; preds = %._crit_edge.us.us.us
  %indvars.iv.next = add nuw nsw i64 %indvars.iv, 1
  %exitcond63.not = icmp eq i64 %indvars.iv.next, 3
  br i1 %exitcond63.not, label %.split57.us, label %.preheader.us.us, !llvm.loop !96

.split57.us:                                      ; preds = %._crit_edge51.split.us.us.us, %4
  ret i32 0
}